; Function Attrs: nounwind uwtable
define internal fastcc range(i32 0, -1) i32 @overlay_adjust_node_phandles(ptr noundef %0, i32 noundef range(i32 0, -2147483648) %1, i32 noundef %2) unnamed_addr #0 {
  %4 = alloca i32, align 4
  %5 = alloca i32, align 4
  %6 = alloca i32, align 4
  %7 = alloca i32, align 4
  call void @llvm.lifetime.start.p0(i64 4, ptr nonnull %7) #8
  store i32 0, ptr %7, align 4, !annotation !4
  %8 = call ptr @fdt_getprop(ptr noundef %0, i32 noundef range(i32 0, -2147483648) %1, ptr noundef nonnull @.str, ptr noundef nonnull %7) #8
  %.not.i = icmp eq ptr %8, null
  %9 = load i32, ptr %7, align 4
  br i1 %.not.i, label %overlay_phandle_add_offset.exit, label %10

10:                                               ; preds = %3
  %.not17.i = icmp eq i32 %9, 4
  br i1 %.not17.i, label %11, label %overlay_phandle_add_offset.exit.thread

11:                                               ; preds = %10
  %12 = load i32, ptr %8, align 4
  %rev.i.i = call noundef i32 @llvm.bswap.i32(i32 %12)
  %13 = add i32 %rev.i.i, %2
  %14 = icmp ult i32 %13, %rev.i.i
  %15 = icmp eq i32 %13, -1
  %or.cond.i = or i1 %14, %15
  br i1 %or.cond.i, label %overlay_phandle_add_offset.exit.thread, label %16

16:                                               ; preds = %11
  call void @llvm.lifetime.start.p0(i64 4, ptr nonnull %6) #8
  %rev.i.i.i = call noundef i32 @llvm.bswap.i32(i32 range(i32 0, -1) %13)
  store i32 %rev.i.i.i, ptr %6, align 4
  %17 = call i32 @fdt_setprop_inplace(ptr noundef %0, i32 noundef range(i32 0, -2147483648) %1, ptr noundef nonnull @.str, ptr noundef nonnull %6, i32 noundef 4) #8
  call void @llvm.lifetime.end.p0(i64 4, ptr nonnull %6) #8
  br label %overlay_phandle_add_offset.exit

overlay_phandle_add_offset.exit.thread:           ; preds = %10, %11
  %.0.i.ph = phi i32 [ -17, %11 ], [ -6, %10 ]
  call void @llvm.lifetime.end.p0(i64 4, ptr nonnull %7) #8
  br label %.loopexit

overlay_phandle_add_offset.exit:                  ; preds = %3, %16
  %.0.i = phi i32 [ %17, %16 ], [ %9, %3 ]
  call void @llvm.lifetime.end.p0(i64 4, ptr nonnull %7) #8
  %18 = add i32 %.0.i, -1
  %or.cond = icmp ult i32 %18, -2
  br i1 %or.cond, label %.loopexit, label %19

19:                                               ; preds = %overlay_phandle_add_offset.exit
  call void @llvm.lifetime.start.p0(i64 4, ptr nonnull %5) #8
  store i32 0, ptr %5, align 4, !annotation !4
  %20 = call ptr @fdt_getprop(ptr noundef %0, i32 noundef range(i32 0, -2147483648) %1, ptr noundef nonnull @.str.1, ptr noundef nonnull %5) #8
  %.not.i29 = icmp eq ptr %20, null
  %21 = load i32, ptr %5, align 4
  br i1 %.not.i29, label %overlay_phandle_add_offset.exit35, label %22

22:                                               ; preds = %19
  %.not17.i30 = icmp eq i32 %21, 4
  br i1 %.not17.i30, label %23, label %overlay_phandle_add_offset.exit35.thread

23:                                               ; preds = %22
  %24 = load i32, ptr %20, align 4
  %rev.i.i32 = call noundef i32 @llvm.bswap.i32(i32 %24)
  %25 = add i32 %rev.i.i32, %2
  %26 = icmp ult i32 %25, %rev.i.i32
  %27 = icmp eq i32 %25, -1
  %or.cond.i33 = or i1 %26, %27
  br i1 %or.cond.i33, label %overlay_phandle_add_offset.exit35.thread, label %28

28:                                               ; preds = %23
  call void @llvm.lifetime.start.p0(i64 4, ptr nonnull %4) #8
  %rev.i.i.i34 = call noundef i32 @llvm.bswap.i32(i32 range(i32 0, -1) %25)
  store i32 %rev.i.i.i34, ptr %4, align 4
  %29 = call i32 @fdt_setprop_inplace(ptr noundef %0, i32 noundef range(i32 0, -2147483648) %1, ptr noundef nonnull @.str.1, ptr noundef nonnull %4, i32 noundef 4) #8
  call void @llvm.lifetime.end.p0(i64 4, ptr nonnull %4) #8
  br label %overlay_phandle_add_offset.exit35

overlay_phandle_add_offset.exit35.thread:         ; preds = %22, %23
  %.0.i31.ph = phi i32 [ -17, %23 ], [ -6, %22 ]
  call void @llvm.lifetime.end.p0(i64 4, ptr nonnull %5) #8
  br label %.loopexit

overlay_phandle_add_offset.exit35:                ; preds = %19, %28
  %.0.i31 = phi i32 [ %29, %28 ], [ %21, %19 ]
  call void @llvm.lifetime.end.p0(i64 4, ptr nonnull %5) #8
  %30 = add i32 %.0.i31, -1
  %or.cond3 = icmp ult i32 %30, -2
  br i1 %or.cond3, label %.loopexit, label %31

31:                                               ; preds = %overlay_phandle_add_offset.exit35
  %32 = call i32 @fdt_first_subnode(ptr noundef %0, i32 noundef %1) #8
  %33 = icmp sgt i32 %32, -1
  br i1 %33, label %.lr.ph, label %.loopexit

.lr.ph:                                           ; preds = %31, %35
  %.040 = phi i32 [ %36, %35 ], [ %32, %31 ]
  %34 = call fastcc i32 @overlay_adjust_node_phandles(ptr noundef %0, i32 noundef %.040, i32 noundef %2)
  %.not = icmp eq i32 %34, 0
  br i1 %.not, label %35, label %.loopexit

35:                                               ; preds = %.lr.ph
  %36 = call i32 @fdt_next_subnode(ptr noundef %0, i32 noundef %.040) #8
  %37 = icmp sgt i32 %36, -1
  br i1 %37, label %.lr.ph, label %.loopexit, !llvm.loop !10

.loopexit:                                        ; preds = %.lr.ph, %35, %31, %overlay_phandle_add_offset.exit35.thread, %overlay_phandle_add_offset.exit.thread, %overlay_phandle_add_offset.exit35, %overlay_phandle_add_offset.exit
  %.025 = phi i32 [ %.0.i, %overlay_phandle_add_offset.exit ], [ %.0.i31, %overlay_phandle_add_offset.exit35 ], [ %.0.i.ph, %overlay_phandle_add_offset.exit.thread ], [ %.0.i31.ph, %overlay_phandle_add_offset.exit35.thread ], [ 0, %31 ], [ %34, %.lr.ph ], [ 0, %35 ]
  ret i32 %.025
}